Certificate:
    Data:
        Version: 3 (0x2)
        Serial Number: 1 (0x1)
    Signature Algorithm: sha256WithRSAEncryption
        Issuer: C=TW, ST=Taipei, L=DaAnn, O=NTUIM, OU=IM, CN=raywted/emailAddress=test@example.com
        Validity
            Not Before: Jan 15 20:42:12 2019 GMT
            Not After : Oct 11 20:42:12 2021 GMT
        Subject: C=TW, ST=TP, L=TP, O=NTU, CN=IM
        Subject Public Key Info:
            Public Key Algorithm: rsaEncryption
                Public-Key: (2048 bit)
                Modulus:
                    00:b3:0d:5a:67:b1:1d:c4:18:69:21:fb:d7:ea:e3:
                    44:62:e7:68:04:a3:3b:71:a4:0e:dc:39:22:ca:dd:
                    02:e8:be:9a:96:3e:a2:d2:38:e2:61:ca:02:30:58:
                    d3:71:a1:1f:b5:86:6c:b8:85:68:8d:fd:f9:95:1d:
                    77:2e:fc:14:c4:ed:a2:44:19:04:1d:ec:5a:8f:70:
                    a1:3f:8e:f2:83:e6:4a:98:db:57:9b:ec:ad:7d:6d:
                    29:74:f2:24:a6:6e:b9:72:6e:2a:71:0b:19:20:9f:
                    79:b7:6a:f1:eb:da:ad:a9:c1:8f:46:3a:3d:c3:b2:
                    e8:a9:05:bb:c3:42:2c:b1:8d:fb:af:a7:95:e5:db:
                    e7:6e:9d:47:89:38:98:bc:c9:b5:fa:2f:a0:db:97:
                    2f:53:ec:b6:0a:84:2c:6d:4a:b5:d4:09:1f:b2:ce:
                    5e:4d:69:d3:4d:48:4c:4e:db:a2:d0:b9:cc:02:ba:
                    83:49:91:0e:23:9a:14:a3:8d:c2:13:f1:3c:68:20:
                    b6:6f:cd:44:9b:76:03:8a:72:6e:4d:81:67:d2:0b:
                    c6:d1:68:28:78:f9:fc:0e:30:6b:01:dc:bf:6d:ea:
                    05:f7:ff:88:b4:53:fe:56:44:97:0c:3e:89:2c:f9:
                    f8:67:7a:3b:3c:84:c4:c2:be:a3:fb:68:70:af:db:
                    3e:37
                Exponent: 65537 (0x10001)
        X509v3 extensions:
            X509v3 Subject Key Identifier: 
                97:A4:18:9A:4B:AF:48:33:E9:D8:28:CD:1E:19:34:AC:A5:EC:47:9E
            X509v3 Authority Key Identifier: 
                keyid:6F:68:48:39:4D:4A:3F:30:33:BF:98:BC:B1:CB:22:20:B5:E7:A7:33

            X509v3 Basic Constraints: 
                CA:FALSE
            X509v3 Key Usage: 
                Digital Signature, Key Encipherment
            X509v3 Subject Alternative Name: 
                DNS:example.com, DNS:www.example.com, DNS:mail.example.com, DNS:ftp.example.com
            Netscape Comment: 
                OpenSSL Generated Certificate
    Signature Algorithm: sha256WithRSAEncryption
         67:a3:92:6e:c9:c4:f7:88:3e:f2:c7:52:b1:61:12:76:99:5a:
         9b:34:6f:e0:58:46:b2:fb:9f:18:8a:07:d8:1c:d9:f3:0e:cb:
         17:5e:a4:5c:07:b7:1c:bf:0a:e8:09:59:a3:1c:fe:14:a2:fb:
         ec:db:f6:12:3e:03:ed:1a:b8:cf:9e:e7:6d:d8:f9:2b:f8:db:
         46:64:86:63:66:77:6d:43:26:65:4b:0d:19:d5:2d:b9:1f:25:
         7c:8a:d1:4a:d9:ec:42:22:82:2b:a1:3a:3c:8c:76:13:11:e1:
         10:3e:df:e1:94:73:c4:8b:43:29:9b:ae:c1:a8:00:0b:57:76:
         d6:3b:01:4f:b4:bf:dd:1a:15:dc:2e:a6:ef:c8:cb:50:f2:27:
         69:e9:9a:8a:69:bd:80:f9:c4:8d:9d:6c:f1:c0:59:73:c4:af:
         e8:0e:ac:2d:60:ca:ef:d9:72:43:71:70:ea:3d:2a:05:cf:fa:
         c1:53:04:a1:1a:80:0c:bd:4e:a4:49:9a:3b:61:87:e5:8f:6b:
         8d:e5:77:67:9a:53:f6:79:ba:b6:1c:8b:22:48:d1:03:5b:67:
         1e:ae:6b:24:1b:a0:fc:61:81:85:21:00:12:4b:8b:b2:2f:c3:
         90:0f:9b:8d:7f:ed:de:93:05:41:3c:2e:2b:9b:5e:c6:48:94:
         a5:74:03:c7:cf:92:03:de:df:9a:aa:78:25:a0:16:5a:25:13:
         0e:02:dd:39:04:0f:de:3f:54:97:0a:2c:2b:37:49:75:7a:fd:
         97:18:c6:25:20:da:93:7a:01:ad:7b:f2:35:38:25:af:18:86:
         b2:df:d4:4b:e6:72:88:7e:ba:82:3b:12:37:f5:c7:ee:8f:4d:
         94:12:03:dd:b1:63:d2:2e:3e:2a:f1:4e:07:c8:92:ac:d3:de:
         f1:87:f3:a7:73:2e:e1:72:28:02:b1:a0:a4:ed:7f:3e:9e:dc:
         ed:a2:e4:77:ab:fa:48:fc:30:e5:2c:6a:3a:ad:e1:d1:38:eb:
         ba:63:36:8d:12:e2:75:5a:2e:bc:03:dc:67:cb:33:55:93:a2:
         ed:9e:7e:9c:05:24:c7:9e:f8:6f:53:1d:c9:dd:49:48:ff:97:
         38:1b:2c:7d:e5:24:29:26:dd:62:c1:0f:47:03:e3:c9:48:cf:
         c7:d0:d5:fe:12:29:ed:81:1f:2e:81:df:e7:ec:a1:f6:1f:c4:
         d7:17:42:6e:ca:c4:37:47:2e:80:f8:18:17:b4:a0:5f:8c:14:
         98:83:dd:0d:50:10:f1:a9:27:81:74:be:ca:8f:ea:4a:60:86:
         6d:f0:ab:1f:83:14:aa:6c:07:2f:73:67:04:f9:cf:02:ff:84:
         8b:30:0f:d2:3f:14:7d:9e
-----BEGIN CERTIFICATE-----
MIIFETCCAvmgAwIBAgIBATANBgkqhkiG9w0BAQsFADB+MQswCQYDVQQGEwJUVzEP
MA0GA1UECAwGVGFpcGVpMQ4wDAYDVQQHDAVEYUFubjEOMAwGA1UECgwFTlRVSU0x
CzAJBgNVBAsMAklNMRAwDgYDVQQDDAdyYXl3dGVkMR8wHQYJKoZIhvcNAQkBFhB0
ZXN0QGV4YW1wbGUuY29tMB4XDTE5MDExNTIwNDIxMloXDTIxMTAxMTIwNDIxMlow
QjELMAkGA1UEBhMCVFcxCzAJBgNVBAgMAlRQMQswCQYDVQQHDAJUUDEMMAoGA1UE
CgwDTlRVMQswCQYDVQQDDAJJTTCCASIwDQYJKoZIhvcNAQEBBQADggEPADCCAQoC
ggEBALMNWmexHcQYaSH71+rjRGLnaASjO3GkDtw5IsrdAui+mpY+otI44mHKAjBY
03GhH7WGbLiFaI39+ZUddy78FMTtokQZBB3sWo9woT+O8oPmSpjbV5vsrX1tKXTy
JKZuuXJuKnELGSCfebdq8evaranBj0Y6PcOy6KkFu8NCLLGN+6+nleXb526dR4k4
mLzJtfovoNuXL1PstgqELG1KtdQJH7LOXk1p001ITE7botC5zAK6g0mRDiOaFKON
whPxPGggtm/NRJt2A4pybk2BZ9ILxtFoKHj5/A4wawHcv23qBff/iLRT/lZElww+
iSz5+Gd6OzyExMK+o/tocK/bPjcCAwEAAaOB1TCB0jAdBgNVHQ4EFgQUl6QYmkuv
SDPp2CjNHhk0rKXsR54wHwYDVR0jBBgwFoAUb2hIOU1KPzAzv5i8scsiILXnpzMw
CQYDVR0TBAIwADALBgNVHQ8EBAMCBaAwSgYDVR0RBEMwQYILZXhhbXBsZS5jb22C
D3d3dy5leGFtcGxlLmNvbYIQbWFpbC5leGFtcGxlLmNvbYIPZnRwLmV4YW1wbGUu
Y29tMCwGCWCGSAGG+EIBDQQfFh1PcGVuU1NMIEdlbmVyYXRlZCBDZXJ0aWZpY2F0
ZTANBgkqhkiG9w0BAQsFAAOCAgEAZ6OSbsnE94g+8sdSsWESdplamzRv4FhGsvuf
GIoH2BzZ8w7LF16kXAe3HL8K6AlZoxz+FKL77Nv2Ej4D7Rq4z57nbdj5K/jbRmSG
Y2Z3bUMmZUsNGdUtuR8lfIrRStnsQiKCK6E6PIx2ExHhED7f4ZRzxItDKZuuwagA
C1d21jsBT7S/3RoV3C6m78jLUPInaemaimm9gPnEjZ1s8cBZc8Sv6A6sLWDK79ly
Q3Fw6j0qBc/6wVMEoRqADL1OpEmaO2GH5Y9rjeV3Z5pT9nm6thyLIkjRA1tnHq5r
JBug/GGBhSEAEkuLsi/DkA+bjX/t3pMFQTwuK5texkiUpXQDx8+SA97fmqp4JaAW
WiUTDgLdOQQP3j9UlwosKzdJdXr9lxjGJSDak3oBrXvyNTglrxiGst/US+ZyiH66
gjsSN/XH7o9NlBID3bFj0i4+KvFOB8iSrNPe8Yfzp3Mu4XIoArGgpO1/Pp7c7aLk
d6v6SPww5SxqOq3h0TjrumM2jRLidVouvAPcZ8szVZOi7Z5+nAUkx574b1Mdyd1J
SP+XOBssfeUkKSbdYsEPRwPjyUjPx9DV/hIp7YEfLoHf5+yh9h/E1xdCbsrEN0cu
gPgYF7SgX4wUmIPdDVAQ8akngXS+yo/qSmCGbfCrH4MUqmwHL3NnBPnPAv+EizAP
0j8UfZ4=
-----END CERTIFICATE-----
